Archive member included because of file (symbol)

C:\Users\Bertus\Documents\LPCXpresso_5.2.6_2137\workspace8\CMSISv2p10_LPC43xx_DriverLib\Debug\libCMSISv2p10_LPC43xx_DriverLib.a(lpc43xx_cgu.o)
                              ./src/main.o (CGU_Init)
C:\Users\Bertus\Documents\LPCXpresso_5.2.6_2137\workspace8\CMSISv2p10_LPC43xx_DriverLib\Debug\libCMSISv2p10_LPC43xx_DriverLib.a(lpc43xx_gpio.o)
                              ./src/LED.o (GPIO_SetDir)
C:\Users\Bertus\Documents\LPCXpresso_5.2.6_2137\workspace8\CMSISv2p10_LPC43xx_DriverLib\Debug\libCMSISv2p10_LPC43xx_DriverLib.a(lpc43xx_scu.o)
                              ./src/LED.o (scu_pinmux)
C:\Users\Bertus\Documents\LPCXpresso_5.2.6_2137\workspace8\CMSISv2p10_LPC43xx_DriverLib\Debug\libCMSISv2p10_LPC43xx_DriverLib.a(lpc43xx_utils.o)
                              ./src/LED.o (timer_delay_ms)
C:\Users\Bertus\Documents\LPCXpresso_5.2.6_2137\workspace8\CMSISv2p10_LPC43xx_DriverLib\Debug\libCMSISv2p10_LPC43xx_DriverLib.a(system_LPC43xx.o)
                              ./src/cr_startup_lpc43xx.o (SystemInit)
C:\Users\Bertus\Documents\LPCXpresso_5.2.6_2137\workspace8\CMSISv2p10_LPC43xx_DriverLib\Debug\libCMSISv2p10_LPC43xx_DriverLib.a(lpc43xx_timer.o)
                              C:\Users\Bertus\Documents\LPCXpresso_5.2.6_2137\workspace8\CMSISv2p10_LPC43xx_DriverLib\Debug\libCMSISv2p10_LPC43xx_DriverLib.a(lpc43xx_utils.o) (TIM_GetIntStatus)
c:/nxp/lpcxpresso_5.2.6_2137/lpcxpresso/tools/bin/../lib/gcc/arm-none-eabi/4.6.2/../../../../arm-none-eabi/lib/armv7e-m\libcr_c.a(memcpy.o)
                              ./src/FreeRTOS/src/queue.o (memcpy)
c:/nxp/lpcxpresso_5.2.6_2137/lpcxpresso/tools/bin/../lib/gcc/arm-none-eabi/4.6.2/../../../../arm-none-eabi/lib/armv7e-m\libcr_c.a(memset.o)
                              ./src/FreeRTOS/src/tasks.o (memset)
c:/nxp/lpcxpresso_5.2.6_2137/lpcxpresso/tools/bin/../lib/gcc/arm-none-eabi/4.6.2/../../../../arm-none-eabi/lib/armv7e-m\libcr_c.a(__weak__main.o)
                              ./src/cr_startup_lpc43xx.o (__main)
c:/nxp/lpcxpresso_5.2.6_2137/lpcxpresso/tools/bin/../lib/gcc/arm-none-eabi/4.6.2/armv7e-m\libcr_eabihelpers.a(division.o)
                              C:\Users\Bertus\Documents\LPCXpresso_5.2.6_2137\workspace8\CMSISv2p10_LPC43xx_DriverLib\Debug\libCMSISv2p10_LPC43xx_DriverLib.a(lpc43xx_timer.o) (__aeabi_uldivmod)
c:/nxp/lpcxpresso_5.2.6_2137/lpcxpresso/tools/bin/../lib/gcc/arm-none-eabi/4.6.2/armv7e-m\libcr_eabihelpers.a(memcpy.o)
                              c:/nxp/lpcxpresso_5.2.6_2137/lpcxpresso/tools/bin/../lib/gcc/arm-none-eabi/4.6.2/../../../../arm-none-eabi/lib/armv7e-m\libcr_c.a(memcpy.o) (__aeabi_memcpy)

Allocating common symbols
Common symbol       size              file

tempy               0x4               ./src/main.o
msec                0x4               ./src/main.o
xQueueRegistry      0x40              ./src/FreeRTOS/src/queue.o
TIM_ConfigStruct    0x8               C:\Users\Bertus\Documents\LPCXpresso_5.2.6_2137\workspace8\CMSISv2p10_LPC43xx_DriverLib\Debug\libCMSISv2p10_LPC43xx_DriverLib.a(lpc43xx_utils.o)
TIM_MatchConfigStruct
                    0xc               C:\Users\Bertus\Documents\LPCXpresso_5.2.6_2137\workspace8\CMSISv2p10_LPC43xx_DriverLib\Debug\libCMSISv2p10_LPC43xx_DriverLib.a(lpc43xx_utils.o)
tempx               0x4               ./src/main.o

Discarded input sections

 .text          0x00000000        0x0 ./src/FreeRTOS/src/croutine.o
 .data          0x00000000        0x0 ./src/FreeRTOS/src/croutine.o
 .bss           0x00000000        0x0 ./src/FreeRTOS/src/croutine.o
 .bss.pxReadyCoRoutineLists
                0x00000000       0x28 ./src/FreeRTOS/src/croutine.o
 .bss.xDelayedCoRoutineList1
                0x00000000       0x14 ./src/FreeRTOS/src/croutine.o
 .bss.xDelayedCoRoutineList2
                0x00000000       0x14 ./src/FreeRTOS/src/croutine.o
 .bss.pxDelayedCoRoutineList
                0x00000000        0x4 ./src/FreeRTOS/src/croutine.o
 .bss.pxOverflowDelayedCoRoutineList
                0x00000000        0x4 ./src/FreeRTOS/src/croutine.o
 .bss.xPendingReadyCoRoutineList
                0x00000000       0x14 ./src/FreeRTOS/src/croutine.o
 .bss.pxCurrentCoRoutine
                0x00000000        0x4 ./src/FreeRTOS/src/croutine.o
 .bss.uxTopCoRoutineReadyPriority
                0x00000000        0x4 ./src/FreeRTOS/src/croutine.o
 .bss.xCoRoutineTickCount
                0x00000000        0x4 ./src/FreeRTOS/src/croutine.o
 .bss.xLastTickCount
                0x00000000        0x4 ./src/FreeRTOS/src/croutine.o
 .bss.xPassedTicks
                0x00000000        0x4 ./src/FreeRTOS/src/croutine.o
 .text.xCoRoutineCreate
                0x00000000       0xf4 ./src/FreeRTOS/src/croutine.o
 .text.vCoRoutineAddToDelayedList
                0x00000000       0xb4 ./src/FreeRTOS/src/croutine.o
 .text.prvCheckPendingReadyList
                0x00000000       0x9c ./src/FreeRTOS/src/croutine.o
 .text.prvCheckDelayedList
                0x00000000      0x16c ./src/FreeRTOS/src/croutine.o
 .text.vCoRoutineSchedule
                0x00000000       0xec ./src/FreeRTOS/src/croutine.o
 .text.prvInitialiseCoRoutineLists
                0x00000000       0x8c ./src/FreeRTOS/src/croutine.o
 .text.xCoRoutineRemoveFromEventList
                0x00000000       0x60 ./src/FreeRTOS/src/croutine.o
 .text          0x00000000        0x0 ./src/FreeRTOS/src/heap_1.o
 .data          0x00000000        0x0 ./src/FreeRTOS/src/heap_1.o
 .bss           0x00000000        0x0 ./src/FreeRTOS/src/heap_1.o
 .text.vPortInitialiseBlocks
                0x00000000       0x18 ./src/FreeRTOS/src/heap_1.o
 .text.xPortGetFreeHeapSize
                0x00000000       0x20 ./src/FreeRTOS/src/heap_1.o
 .text          0x00000000        0x0 ./src/FreeRTOS/src/list.o
 .data          0x00000000        0x0 ./src/FreeRTOS/src/list.o
 .bss           0x00000000        0x0 ./src/FreeRTOS/src/list.o
 .text          0x00000000        0x0 ./src/FreeRTOS/src/port.o
 .data          0x00000000        0x0 ./src/FreeRTOS/src/port.o
 .bss           0x00000000        0x0 ./src/FreeRTOS/src/port.o
 .rodata.pcInterruptPriorityRegisters
                0x00000000        0x4 ./src/FreeRTOS/src/port.o
 .text.vPortEndScheduler
                0x00000000        0xc ./src/FreeRTOS/src/port.o
 .text.vPortValidateInterruptPriority
                0x00000000       0x64 ./src/FreeRTOS/src/port.o
 .text          0x00000000        0x0 ./src/FreeRTOS/src/queue.o
 .data          0x00000000        0x0 ./src/FreeRTOS/src/queue.o
 .bss           0x00000000        0x0 ./src/FreeRTOS/src/queue.o
 .text.xQueueGenericReset
                0x00000000       0xc0 ./src/FreeRTOS/src/queue.o
 .text.xQueueGenericCreate
                0x00000000       0x90 ./src/FreeRTOS/src/queue.o
 .text.xQueueCreateMutex
                0x00000000       0xb0 ./src/FreeRTOS/src/queue.o
 .text.xQueueGiveMutexRecursive
                0x00000000       0x68 ./src/FreeRTOS/src/queue.o
 .text.xQueueTakeMutexRecursive
                0x00000000       0x70 ./src/FreeRTOS/src/queue.o
 .text.xQueueCreateCountingSemaphore
                0x00000000       0x40 ./src/FreeRTOS/src/queue.o
 .text.xQueueGenericSend
                0x00000000      0x17c ./src/FreeRTOS/src/queue.o
 .text.xQueueGenericSendFromISR
                0x00000000       0xec ./src/FreeRTOS/src/queue.o
 .text.xQueueGenericReceive
                0x00000000      0x1b8 ./src/FreeRTOS/src/queue.o
 .text.xQueueReceiveFromISR
                0x00000000       0xc8 ./src/FreeRTOS/src/queue.o
 .text.xQueuePeekFromISR
                0x00000000       0x84 ./src/FreeRTOS/src/queue.o
 .text.uxQueueMessagesWaiting
                0x00000000       0x30 ./src/FreeRTOS/src/queue.o
 .text.uxQueueSpacesAvailable
                0x00000000       0x38 ./src/FreeRTOS/src/queue.o
 .text.uxQueueMessagesWaitingFromISR
                0x00000000       0x28 ./src/FreeRTOS/src/queue.o
 .text.vQueueDelete
                0x00000000       0x38 ./src/FreeRTOS/src/queue.o
 .text.ucQueueGetQueueNumber
                0x00000000       0x1c ./src/FreeRTOS/src/queue.o
 .text.vQueueSetQueueNumber
                0x00000000       0x20 ./src/FreeRTOS/src/queue.o
 .text.ucQueueGetQueueType
                0x00000000       0x1c ./src/FreeRTOS/src/queue.o
 .text.prvCopyDataToQueue
                0x00000000       0xdc ./src/FreeRTOS/src/queue.o
 .text.prvCopyDataFromQueue
                0x00000000       0x50 ./src/FreeRTOS/src/queue.o
 .text.prvUnlockQueue
                0x00000000       0xa0 ./src/FreeRTOS/src/queue.o
 .text.prvIsQueueEmpty
                0x00000000       0x34 ./src/FreeRTOS/src/queue.o
 .text.xQueueIsQueueEmptyFromISR
                0x00000000       0x38 ./src/FreeRTOS/src/queue.o
 .text.prvIsQueueFull
                0x00000000       0x38 ./src/FreeRTOS/src/queue.o
 .text.xQueueIsQueueFullFromISR
                0x00000000       0x3c ./src/FreeRTOS/src/queue.o
 .text.vQueueAddToRegistry
                0x00000000       0x64 ./src/FreeRTOS/src/queue.o
 .text.vQueueUnregisterQueue
                0x00000000       0x54 ./src/FreeRTOS/src/queue.o
 COMMON         0x00000000       0x40 ./src/FreeRTOS/src/queue.o
 .text          0x00000000        0x0 ./src/FreeRTOS/src/tasks.o
 .data          0x00000000        0x0 ./src/FreeRTOS/src/tasks.o
 .bss           0x00000000        0x0 ./src/FreeRTOS/src/tasks.o
 .text.vTaskDelete
                0x00000000       0xb4 ./src/FreeRTOS/src/tasks.o
 .text.vTaskDelayUntil
                0x00000000       0xc0 ./src/FreeRTOS/src/tasks.o
 .text.uxTaskPriorityGet
                0x00000000       0x38 ./src/FreeRTOS/src/tasks.o
 .text.vTaskPrioritySet
                0x00000000      0x15c ./src/FreeRTOS/src/tasks.o
 .text.vTaskSuspend
                0x00000000       0xb4 ./src/FreeRTOS/src/tasks.o
 .text.xTaskIsTaskSuspended
                0x00000000       0x74 ./src/FreeRTOS/src/tasks.o
 .text.vTaskResume
                0x00000000       0xb8 ./src/FreeRTOS/src/tasks.o
 .text.xTaskResumeFromISR
                0x00000000       0xdc ./src/FreeRTOS/src/tasks.o
 .text.vTaskEndScheduler
                0x00000000       0x1c ./src/FreeRTOS/src/tasks.o
 .text.xTaskGetTickCount
                0x00000000       0x28 ./src/FreeRTOS/src/tasks.o
 .text.xTaskGetTickCountFromISR
                0x00000000       0x30 ./src/FreeRTOS/src/tasks.o
 .text.uxTaskGetNumberOfTasks
                0x00000000       0x18 ./src/FreeRTOS/src/tasks.o
 .text.uxTaskGetSystemState
                0x00000000      0x128 ./src/FreeRTOS/src/tasks.o
 .text.vTaskPlaceOnEventList
                0x00000000       0x84 ./src/FreeRTOS/src/tasks.o
 .text.xTaskRemoveFromEventList
                0x00000000       0xe0 ./src/FreeRTOS/src/tasks.o
 .text.vTaskSetTimeOutState
                0x00000000       0x38 ./src/FreeRTOS/src/tasks.o
 .text.xTaskCheckForTimeOut
                0x00000000       0xb0 ./src/FreeRTOS/src/tasks.o
 .text.vTaskMissedYield
                0x00000000       0x18 ./src/FreeRTOS/src/tasks.o
 .text.uxTaskGetTaskNumber
                0x00000000       0x30 ./src/FreeRTOS/src/tasks.o
 .text.vTaskSetTaskNumber
                0x00000000       0x24 ./src/FreeRTOS/src/tasks.o
 .text.prvListTaskWithinSingleList
                0x00000000      0x11c ./src/FreeRTOS/src/tasks.o
 .text.prvTaskCheckFreeStackSpace
                0x00000000       0x40 ./src/FreeRTOS/src/tasks.o
 .text.xTaskGetCurrentTaskHandle
                0x00000000       0x20 ./src/FreeRTOS/src/tasks.o
 .text.vTaskPriorityInherit
                0x00000000       0xec ./src/FreeRTOS/src/tasks.o
 .text.vTaskPriorityDisinherit
                0x00000000       0x90 ./src/FreeRTOS/src/tasks.o
 .text          0x00000000        0x0 ./src/FreeRTOS/src/timers.o
 .data          0x00000000        0x0 ./src/FreeRTOS/src/timers.o
 .bss           0x00000000        0x0 ./src/FreeRTOS/src/timers.o
 .text          0x00000000        0x0 ./src/LED.o
 .data          0x00000000        0x0 ./src/LED.o
 .bss           0x00000000        0x0 ./src/LED.o
 .text          0x00000000        0x0 ./src/cr_startup_lpc43xx.o
 .data          0x00000000        0x0 ./src/cr_startup_lpc43xx.o
 .bss           0x00000000        0x0 ./src/cr_startup_lpc43xx.o
 .text          0x00000000        0x0 ./src/main.o
 .data          0x00000000        0x0 ./src/main.o
 .bss           0x00000000        0x0 ./src/main.o
 .crp           0x00000000        0x4 ./src/main.o
 COMMON         0x00000000        0xc ./src/main.o
 .text          0x00000000        0x0 C:\Users\Bertus\Documents\LPCXpresso_5.2.6_2137\workspace8\CMSISv2p10_LPC43xx_DriverLib\Debug\libCMSISv2p10_LPC43xx_DriverLib.a(lpc43xx_cgu.o)
 .data          0x00000000        0x0 C:\Users\Bertus\Documents\LPCXpresso_5.2.6_2137\workspace8\CMSISv2p10_LPC43xx_DriverLib\Debug\libCMSISv2p10_LPC43xx_DriverLib.a(lpc43xx_cgu.o)
 .bss           0x00000000        0x0 C:\Users\Bertus\Documents\LPCXpresso_5.2.6_2137\workspace8\CMSISv2p10_LPC43xx_DriverLib\Debug\libCMSISv2p10_LPC43xx_DriverLib.a(lpc43xx_cgu.o)
 .text.CGU_ConfigPWR
                0x00000000      0x59c C:\Users\Bertus\Documents\LPCXpresso_5.2.6_2137\workspace8\CMSISv2p10_LPC43xx_DriverLib\Debug\libCMSISv2p10_LPC43xx_DriverLib.a(lpc43xx_cgu.o)
 .text.CGU_SetDIV
                0x00000000       0x84 C:\Users\Bertus\Documents\LPCXpresso_5.2.6_2137\workspace8\CMSISv2p10_LPC43xx_DriverLib\Debug\libCMSISv2p10_LPC43xx_DriverLib.a(lpc43xx_cgu.o)
 .text.CGU_SetPLL0
                0x00000000       0x60 C:\Users\Bertus\Documents\LPCXpresso_5.2.6_2137\workspace8\CMSISv2p10_LPC43xx_DriverLib\Debug\libCMSISv2p10_LPC43xx_DriverLib.a(lpc43xx_cgu.o)
 .text.CGU_SetPLL0audio
                0x00000000       0x6c C:\Users\Bertus\Documents\LPCXpresso_5.2.6_2137\workspace8\CMSISv2p10_LPC43xx_DriverLib\Debug\libCMSISv2p10_LPC43xx_DriverLib.a(lpc43xx_cgu.o)
 .text.CGU_GetBaseStatus
                0x00000000      0x180 C:\Users\Bertus\Documents\LPCXpresso_5.2.6_2137\workspace8\CMSISv2p10_LPC43xx_DriverLib\Debug\libCMSISv2p10_LPC43xx_DriverLib.a(lpc43xx_cgu.o)
 .text.CGU_FrequencyMonitor
                0x00000000      0x138 C:\Users\Bertus\Documents\LPCXpresso_5.2.6_2137\workspace8\CMSISv2p10_LPC43xx_DriverLib\Debug\libCMSISv2p10_LPC43xx_DriverLib.a(lpc43xx_cgu.o)
 .text.CGU_RealFrequencyCompare
                0x00000000       0x74 C:\Users\Bertus\Documents\LPCXpresso_5.2.6_2137\workspace8\CMSISv2p10_LPC43xx_DriverLib\Debug\libCMSISv2p10_LPC43xx_DriverLib.a(lpc43xx_cgu.o)
 .text          0x00000000        0x0 C:\Users\Bertus\Documents\LPCXpresso_5.2.6_2137\workspace8\CMSISv2p10_LPC43xx_DriverLib\Debug\libCMSISv2p10_LPC43xx_DriverLib.a(lpc43xx_gpio.o)
 .data          0x00000000        0x0 C:\Users\Bertus\Documents\LPCXpresso_5.2.6_2137\workspace8\CMSISv2p10_LPC43xx_DriverLib\Debug\libCMSISv2p10_LPC43xx_DriverLib.a(lpc43xx_gpio.o)
 .bss           0x00000000        0x0 C:\Users\Bertus\Documents\LPCXpresso_5.2.6_2137\workspace8\CMSISv2p10_LPC43xx_DriverLib\Debug\libCMSISv2p10_LPC43xx_DriverLib.a(lpc43xx_gpio.o)
 .text.GPIO_ReadValue
                0x00000000       0x28 C:\Users\Bertus\Documents\LPCXpresso_5.2.6_2137\workspace8\CMSISv2p10_LPC43xx_DriverLib\Debug\libCMSISv2p10_LPC43xx_DriverLib.a(lpc43xx_gpio.o)
 .text.GPIO_IntCmd
                0x00000000      0xa00 C:\Users\Bertus\Documents\LPCXpresso_5.2.6_2137\workspace8\CMSISv2p10_LPC43xx_DriverLib\Debug\libCMSISv2p10_LPC43xx_DriverLib.a(lpc43xx_gpio.o)
 .text.GPIO_GetIntStatus
                0x00000000       0x30 C:\Users\Bertus\Documents\LPCXpresso_5.2.6_2137\workspace8\CMSISv2p10_LPC43xx_DriverLib\Debug\libCMSISv2p10_LPC43xx_DriverLib.a(lpc43xx_gpio.o)
 .text.GPIO_ClearInt
                0x00000000       0x2c C:\Users\Bertus\Documents\LPCXpresso_5.2.6_2137\workspace8\CMSISv2p10_LPC43xx_DriverLib\Debug\libCMSISv2p10_LPC43xx_DriverLib.a(lpc43xx_gpio.o)
 .text.FIO_SetDir
                0x00000000       0x28 C:\Users\Bertus\Documents\LPCXpresso_5.2.6_2137\workspace8\CMSISv2p10_LPC43xx_DriverLib\Debug\libCMSISv2p10_LPC43xx_DriverLib.a(lpc43xx_gpio.o)
 .text.FIO_SetValue
                0x00000000       0x20 C:\Users\Bertus\Documents\LPCXpresso_5.2.6_2137\workspace8\CMSISv2p10_LPC43xx_DriverLib\Debug\libCMSISv2p10_LPC43xx_DriverLib.a(lpc43xx_gpio.o)
 .text.FIO_ClearValue
                0x00000000       0x20 C:\Users\Bertus\Documents\LPCXpresso_5.2.6_2137\workspace8\CMSISv2p10_LPC43xx_DriverLib\Debug\libCMSISv2p10_LPC43xx_DriverLib.a(lpc43xx_gpio.o)
 .text.FIO_ReadValue
                0x00000000       0x20 C:\Users\Bertus\Documents\LPCXpresso_5.2.6_2137\workspace8\CMSISv2p10_LPC43xx_DriverLib\Debug\libCMSISv2p10_LPC43xx_DriverLib.a(lpc43xx_gpio.o)
 .text.FIO_SetMask
                0x00000000       0x7c C:\Users\Bertus\Documents\LPCXpresso_5.2.6_2137\workspace8\CMSISv2p10_LPC43xx_DriverLib\Debug\libCMSISv2p10_LPC43xx_DriverLib.a(lpc43xx_gpio.o)
 .text          0x00000000        0x0 C:\Users\Bertus\Documents\LPCXpresso_5.2.6_2137\workspace8\CMSISv2p10_LPC43xx_DriverLib\Debug\libCMSISv2p10_LPC43xx_DriverLib.a(lpc43xx_scu.o)
 .data          0x00000000        0x0 C:\Users\Bertus\Documents\LPCXpresso_5.2.6_2137\workspace8\CMSISv2p10_LPC43xx_DriverLib\Debug\libCMSISv2p10_LPC43xx_DriverLib.a(lpc43xx_scu.o)
 .bss           0x00000000        0x0 C:\Users\Bertus\Documents\LPCXpresso_5.2.6_2137\workspace8\CMSISv2p10_LPC43xx_DriverLib\Debug\libCMSISv2p10_LPC43xx_DriverLib.a(lpc43xx_scu.o)
 .text          0x00000000        0x0 C:\Users\Bertus\Documents\LPCXpresso_5.2.6_2137\workspace8\CMSISv2p10_LPC43xx_DriverLib\Debug\libCMSISv2p10_LPC43xx_DriverLib.a(lpc43xx_utils.o)
 .data          0x00000000        0x0 C:\Users\Bertus\Documents\LPCXpresso_5.2.6_2137\workspace8\CMSISv2p10_LPC43xx_DriverLib\Debug\libCMSISv2p10_LPC43xx_DriverLib.a(lpc43xx_utils.o)
 .bss           0x00000000        0x0 C:\Users\Bertus\Documents\LPCXpresso_5.2.6_2137\workspace8\CMSISv2p10_LPC43xx_DriverLib\Debug\libCMSISv2p10_LPC43xx_DriverLib.a(lpc43xx_utils.o)
 .text.timer_delay_us
                0x00000000       0xe8 C:\Users\Bertus\Documents\LPCXpresso_5.2.6_2137\workspace8\CMSISv2p10_LPC43xx_DriverLib\Debug\libCMSISv2p10_LPC43xx_DriverLib.a(lpc43xx_utils.o)
 .text          0x00000000        0x0 C:\Users\Bertus\Documents\LPCXpresso_5.2.6_2137\workspace8\CMSISv2p10_LPC43xx_DriverLib\Debug\libCMSISv2p10_LPC43xx_DriverLib.a(system_LPC43xx.o)
 .data          0x00000000        0x0 C:\Users\Bertus\Documents\LPCXpresso_5.2.6_2137\workspace8\CMSISv2p10_LPC43xx_DriverLib\Debug\libCMSISv2p10_LPC43xx_DriverLib.a(system_LPC43xx.o)
 .bss           0x00000000        0x0 C:\Users\Bertus\Documents\LPCXpresso_5.2.6_2137\workspace8\CMSISv2p10_LPC43xx_DriverLib\Debug\libCMSISv2p10_LPC43xx_DriverLib.a(system_LPC43xx.o)
 .text          0x00000000        0x0 C:\Users\Bertus\Documents\LPCXpresso_5.2.6_2137\workspace8\CMSISv2p10_LPC43xx_DriverLib\Debug\libCMSISv2p10_LPC43xx_DriverLib.a(lpc43xx_timer.o)
 .data          0x00000000        0x0 C:\Users\Bertus\Documents\LPCXpresso_5.2.6_2137\workspace8\CMSISv2p10_LPC43xx_DriverLib\Debug\libCMSISv2p10_LPC43xx_DriverLib.a(lpc43xx_timer.o)
 .bss           0x00000000        0x0 C:\Users\Bertus\Documents\LPCXpresso_5.2.6_2137\workspace8\CMSISv2p10_LPC43xx_DriverLib\Debug\libCMSISv2p10_LPC43xx_DriverLib.a(lpc43xx_timer.o)
 .text.TIM_GetIntCaptureStatus
                0x00000000       0xc8 C:\Users\Bertus\Documents\LPCXpresso_5.2.6_2137\workspace8\CMSISv2p10_LPC43xx_DriverLib\Debug\libCMSISv2p10_LPC43xx_DriverLib.a(lpc43xx_timer.o)
 .text.TIM_ClearIntCapturePending
                0x00000000       0xb0 C:\Users\Bertus\Documents\LPCXpresso_5.2.6_2137\workspace8\CMSISv2p10_LPC43xx_DriverLib\Debug\libCMSISv2p10_LPC43xx_DriverLib.a(lpc43xx_timer.o)
 .text.TIM_ConfigStructInit
                0x00000000       0x40 C:\Users\Bertus\Documents\LPCXpresso_5.2.6_2137\workspace8\CMSISv2p10_LPC43xx_DriverLib\Debug\libCMSISv2p10_LPC43xx_DriverLib.a(lpc43xx_timer.o)
 .text.TIM_DeInit
                0x00000000       0x60 C:\Users\Bertus\Documents\LPCXpresso_5.2.6_2137\workspace8\CMSISv2p10_LPC43xx_DriverLib\Debug\libCMSISv2p10_LPC43xx_DriverLib.a(lpc43xx_timer.o)
 .text.TIM_ResetCounter
                0x00000000       0x70 C:\Users\Bertus\Documents\LPCXpresso_5.2.6_2137\workspace8\CMSISv2p10_LPC43xx_DriverLib\Debug\libCMSISv2p10_LPC43xx_DriverLib.a(lpc43xx_timer.o)
 .text.TIM_UpdateMatchValue
                0x00000000       0xa0 C:\Users\Bertus\Documents\LPCXpresso_5.2.6_2137\workspace8\CMSISv2p10_LPC43xx_DriverLib\Debug\libCMSISv2p10_LPC43xx_DriverLib.a(lpc43xx_timer.o)
 .text.TIM_ConfigCapture
                0x00000000      0x110 C:\Users\Bertus\Documents\LPCXpresso_5.2.6_2137\workspace8\CMSISv2p10_LPC43xx_DriverLib\Debug\libCMSISv2p10_LPC43xx_DriverLib.a(lpc43xx_timer.o)
 .text.TIM_GetCaptureValue
                0x00000000       0xc0 C:\Users\Bertus\Documents\LPCXpresso_5.2.6_2137\workspace8\CMSISv2p10_LPC43xx_DriverLib\Debug\libCMSISv2p10_LPC43xx_DriverLib.a(lpc43xx_timer.o)
 .text.TIM_Waitus
                0x00000000       0x84 C:\Users\Bertus\Documents\LPCXpresso_5.2.6_2137\workspace8\CMSISv2p10_LPC43xx_DriverLib\Debug\libCMSISv2p10_LPC43xx_DriverLib.a(lpc43xx_timer.o)
 .text.TIM_Waitms
                0x00000000       0x20 C:\Users\Bertus\Documents\LPCXpresso_5.2.6_2137\workspace8\CMSISv2p10_LPC43xx_DriverLib\Debug\libCMSISv2p10_LPC43xx_DriverLib.a(lpc43xx_timer.o)
 .text          0x00000000        0x0 c:/nxp/lpcxpresso_5.2.6_2137/lpcxpresso/tools/bin/../lib/gcc/arm-none-eabi/4.6.2/../../../../arm-none-eabi/lib/armv7e-m\libcr_c.a(memcpy.o)
 .data          0x00000000        0x0 c:/nxp/lpcxpresso_5.2.6_2137/lpcxpresso/tools/bin/../lib/gcc/arm-none-eabi/4.6.2/../../../../arm-none-eabi/lib/armv7e-m\libcr_c.a(memcpy.o)
 .bss           0x00000000        0x0 c:/nxp/lpcxpresso_5.2.6_2137/lpcxpresso/tools/bin/../lib/gcc/arm-none-eabi/4.6.2/../../../../arm-none-eabi/lib/armv7e-m\libcr_c.a(memcpy.o)
 .text.memcpy   0x00000000        0x4 c:/nxp/lpcxpresso_5.2.6_2137/lpcxpresso/tools/bin/../lib/gcc/arm-none-eabi/4.6.2/../../../../arm-none-eabi/lib/armv7e-m\libcr_c.a(memcpy.o)
 .text          0x00000000        0x0 c:/nxp/lpcxpresso_5.2.6_2137/lpcxpresso/tools/bin/../lib/gcc/arm-none-eabi/4.6.2/../../../../arm-none-eabi/lib/armv7e-m\libcr_c.a(memset.o)
 .data          0x00000000        0x0 c:/nxp/lpcxpresso_5.2.6_2137/lpcxpresso/tools/bin/../lib/gcc/arm-none-eabi/4.6.2/../../../../arm-none-eabi/lib/armv7e-m\libcr_c.a(memset.o)
 .bss           0x00000000        0x0 c:/nxp/lpcxpresso_5.2.6_2137/lpcxpresso/tools/bin/../lib/gcc/arm-none-eabi/4.6.2/../../../../arm-none-eabi/lib/armv7e-m\libcr_c.a(memset.o)
 .text          0x00000000        0x0 c:/nxp/lpcxpresso_5.2.6_2137/lpcxpresso/tools/bin/../lib/gcc/arm-none-eabi/4.6.2/../../../../arm-none-eabi/lib/armv7e-m\libcr_c.a(__weak__main.o)
 .data          0x00000000        0x0 c:/nxp/lpcxpresso_5.2.6_2137/lpcxpresso/tools/bin/../lib/gcc/arm-none-eabi/4.6.2/../../../../arm-none-eabi/lib/armv7e-m\libcr_c.a(__weak__main.o)
 .bss           0x00000000        0x0 c:/nxp/lpcxpresso_5.2.6_2137/lpcxpresso/tools/bin/../lib/gcc/arm-none-eabi/4.6.2/../../../../arm-none-eabi/lib/armv7e-m\libcr_c.a(__weak__main.o)
 .text          0x00000000        0x0 c:/nxp/lpcxpresso_5.2.6_2137/lpcxpresso/tools/bin/../lib/gcc/arm-none-eabi/4.6.2/armv7e-m\libcr_eabihelpers.a(division.o)
 .data          0x00000000        0x0 c:/nxp/lpcxpresso_5.2.6_2137/lpcxpresso/tools/bin/../lib/gcc/arm-none-eabi/4.6.2/armv7e-m\libcr_eabihelpers.a(division.o)
 .bss           0x00000000        0x0 c:/nxp/lpcxpresso_5.2.6_2137/lpcxpresso/tools/bin/../lib/gcc/arm-none-eabi/4.6.2/armv7e-m\libcr_eabihelpers.a(division.o)
 .text.__aeabi_division_idiv
                0x00000000       0x10 c:/nxp/lpcxpresso_5.2.6_2137/lpcxpresso/tools/bin/../lib/gcc/arm-none-eabi/4.6.2/armv7e-m\libcr_eabihelpers.a(division.o)
 .text.__aeabi_division_idivmod
                0x00000000       0x16 c:/nxp/lpcxpresso_5.2.6_2137/lpcxpresso/tools/bin/../lib/gcc/arm-none-eabi/4.6.2/armv7e-m\libcr_eabihelpers.a(division.o)
 .text.__aeabi_division_uidiv
                0x00000000       0x10 c:/nxp/lpcxpresso_5.2.6_2137/lpcxpresso/tools/bin/../lib/gcc/arm-none-eabi/4.6.2/armv7e-m\libcr_eabihelpers.a(division.o)
 .text.__aeabi_division_uidivmod
                0x00000000       0x16 c:/nxp/lpcxpresso_5.2.6_2137/lpcxpresso/tools/bin/../lib/gcc/arm-none-eabi/4.6.2/armv7e-m\libcr_eabihelpers.a(division.o)
 .text.__aeabi_division_ldivmod
                0x00000000       0x26 c:/nxp/lpcxpresso_5.2.6_2137/lpcxpresso/tools/bin/../lib/gcc/arm-none-eabi/4.6.2/armv7e-m\libcr_eabihelpers.a(division.o)
 .text.__aeabi_division_ldiv0
                0x00000000        0x2 c:/nxp/lpcxpresso_5.2.6_2137/lpcxpresso/tools/bin/../lib/gcc/arm-none-eabi/4.6.2/armv7e-m\libcr_eabihelpers.a(division.o)
 .text          0x00000000        0x0 c:/nxp/lpcxpresso_5.2.6_2137/lpcxpresso/tools/bin/../lib/gcc/arm-none-eabi/4.6.2/armv7e-m\libcr_eabihelpers.a(memcpy.o)
 .data          0x00000000        0x0 c:/nxp/lpcxpresso_5.2.6_2137/lpcxpresso/tools/bin/../lib/gcc/arm-none-eabi/4.6.2/armv7e-m\libcr_eabihelpers.a(memcpy.o)
 .bss           0x00000000        0x0 c:/nxp/lpcxpresso_5.2.6_2137/lpcxpresso/tools/bin/../lib/gcc/arm-none-eabi/4.6.2/armv7e-m\libcr_eabihelpers.a(memcpy.o)
 .text.__aeabi_memcpy
                0x00000000       0x26 c:/nxp/lpcxpresso_5.2.6_2137/lpcxpresso/tools/bin/../lib/gcc/arm-none-eabi/4.6.2/armv7e-m\libcr_eabihelpers.a(memcpy.o)
 .text.__aeabi_memmove
                0x00000000       0x1c c:/nxp/lpcxpresso_5.2.6_2137/lpcxpresso/tools/bin/../lib/gcc/arm-none-eabi/4.6.2/armv7e-m\libcr_eabihelpers.a(memcpy.o)
 .text.__aeabi_memclr
                0x00000000        0x8 c:/nxp/lpcxpresso_5.2.6_2137/lpcxpresso/tools/bin/../lib/gcc/arm-none-eabi/4.6.2/armv7e-m\libcr_eabihelpers.a(memcpy.o)
 .text.__aeabi_memset
                0x00000000        0xa c:/nxp/lpcxpresso_5.2.6_2137/lpcxpresso/tools/bin/../lib/gcc/arm-none-eabi/4.6.2/armv7e-m\libcr_eabihelpers.a(memcpy.o)

Memory Configuration

Name             Origin             Length             Attributes
MFlashA512       0x1a000000         0x00080000         xr
MFlashB512       0x1b000000         0x00080000         xr
RamLoc32         0x10000000         0x00008000         xrw
RamLoc40         0x10080000         0x0000a000         xrw
RamAHB32         0x20000000         0x00008000         xrw
RamAHB16         0x20008000         0x00004000         xrw
RamAHB_ETB16     0x2000c000         0x00004000         xrw
*default*        0x00000000         0xffffffff

Linker script and memory map

LOAD ./src/FreeRTOS/src/croutine.o
LOAD ./src/FreeRTOS/src/heap_1.o
LOAD ./src/FreeRTOS/src/list.o
LOAD ./src/FreeRTOS/src/port.o
LOAD ./src/FreeRTOS/src/queue.o
LOAD ./src/FreeRTOS/src/tasks.o
LOAD ./src/FreeRTOS/src/timers.o
LOAD ./src/LED.o
LOAD ./src/cr_startup_lpc43xx.o
LOAD ./src/main.o
LOAD C:\Users\Bertus\Documents\LPCXpresso_5.2.6_2137\workspace8\CMSISv2p10_LPC43xx_DriverLib\Debug\libCMSISv2p10_LPC43xx_DriverLib.a
START GROUP
LOAD c:/nxp/lpcxpresso_5.2.6_2137/lpcxpresso/tools/bin/../lib/gcc/arm-none-eabi/4.6.2/../../../../arm-none-eabi/lib/armv7e-m\libcr_c.a
LOAD c:/nxp/lpcxpresso_5.2.6_2137/lpcxpresso/tools/bin/../lib/gcc/arm-none-eabi/4.6.2/armv7e-m\libcr_eabihelpers.a
END GROUP
                0x1a080000                __top_MFlashA512 = 0x1a080000
                0x1b080000                __top_MFlashB512 = 0x1b080000
                0x10008000                __top_RamLoc32 = 0x10008000
                0x1008a000                __top_RamLoc40 = 0x1008a000
                0x20008000                __top_RamAHB32 = 0x20008000
                0x2000c000                __top_RamAHB16 = 0x2000c000
                0x20010000                __top_RamAHB_ETB16 = 0x20010000

.text_Flash2    0x1b000000        0x0
 FILL mask 0xff
 *(.text_Flash2*)
 *(.text_MFlashB512*)

.text           0x1a000000     0x2bbc
 FILL mask 0xff
                0x1a000000                __vectors_start__ = ABSOLUTE (.)
 *(.isr_vector)
 .isr_vector    0x1a000000      0x114 ./src/cr_startup_lpc43xx.o
                0x1a000000                g_pfnVectors
                0x1a000114                . = ALIGN (0x4)
                0x1a000114                __section_table_start = .
                0x1a000114                __data_section_table = .
                0x1a000114        0x4 LONG 0x1a002bbc LOADADDR (.data)
                0x1a000118        0x4 LONG 0x10000000 ADDR (.data)
                0x1a00011c        0x4 LONG 0x50 SIZEOF (.data)
                0x1a000120        0x4 LONG 0x1a002bbc LOADADDR (.data_RAM2)
                0x1a000124        0x4 LONG 0x10080000 ADDR (.data_RAM2)
                0x1a000128        0x4 LONG 0x0 SIZEOF (.data_RAM2)
                0x1a00012c        0x4 LONG 0x1a002bbc LOADADDR (.data_RAM3)
                0x1a000130        0x4 LONG 0x20000000 ADDR (.data_RAM3)
                0x1a000134        0x4 LONG 0x0 SIZEOF (.data_RAM3)
                0x1a000138        0x4 LONG 0x1a002bbc LOADADDR (.data_RAM4)
                0x1a00013c        0x4 LONG 0x20008000 ADDR (.data_RAM4)
                0x1a000140        0x4 LONG 0x0 SIZEOF (.data_RAM4)
                0x1a000144        0x4 LONG 0x1a002bbc LOADADDR (.data_RAM5)
                0x1a000148        0x4 LONG 0x2000c000 ADDR (.data_RAM5)
                0x1a00014c        0x4 LONG 0x0 SIZEOF (.data_RAM5)
                0x1a000150                __data_section_table_end = .
                0x1a000150                __bss_section_table = .
                0x1a000150        0x4 LONG 0x10000050 ADDR (.bss)
                0x1a000154        0x4 LONG 0x7a10 SIZEOF (.bss)
                0x1a000158        0x4 LONG 0x10080000 ADDR (.bss_RAM2)
                0x1a00015c        0x4 LONG 0x0 SIZEOF (.bss_RAM2)
                0x1a000160        0x4 LONG 0x20000000 ADDR (.bss_RAM3)
                0x1a000164        0x4 LONG 0x0 SIZEOF (.bss_RAM3)
                0x1a000168        0x4 LONG 0x20008000 ADDR (.bss_RAM4)
                0x1a00016c        0x4 LONG 0x0 SIZEOF (.bss_RAM4)
                0x1a000170        0x4 LONG 0x2000c000 ADDR (.bss_RAM5)
                0x1a000174        0x4 LONG 0x0 SIZEOF (.bss_RAM5)
                0x1a000178                __bss_section_table_end = .
                0x1a000178                __section_table_end = .
 *(.after_vectors*)
 .after_vectors
                0x1a000178       0x36 ./src/cr_startup_lpc43xx.o
                0x1a000178                NMI_Handler
                0x1a00017a                HardFault_Handler
                0x1a00017c                MemManage_Handler
                0x1a00017e                BusFault_Handler
                0x1a000180                UsageFault_Handler
                0x1a000184                DebugMon_Handler
                0x1a00018a                data_init
                0x1a00019c                bss_init
                0x1a0001ac                RIT_IRQHandler
                0x1a0001ac                I2C1_IRQHandler
                0x1a0001ac                UART1_IRQHandler
                0x1a0001ac                GPIO5_IRQHandler
                0x1a0001ac                CAN1_IRQHandler
                0x1a0001ac                USB1_IRQHandler
                0x1a0001ac                I2S0_IRQHandler
                0x1a0001ac                TIMER3_IRQHandler
                0x1a0001ac                UART0_IRQHandler
                0x1a0001ac                ATIMER_IRQHandler
                0x1a0001ac                SDIO_IRQHandler
                0x1a0001ac                ADC0_IRQHandler
                0x1a0001ac                FLASH_EEPROM_IRQHandler
                0x1a0001ac                GPIO6_IRQHandler
                0x1a0001ac                IntDefaultHandler
                0x1a0001ac                GPIO1_IRQHandler
                0x1a0001ac                SSP0_IRQHandler
                0x1a0001ac                ADC1_IRQHandler
                0x1a0001ac                RTC_IRQHandler
                0x1a0001ac                TIMER0_IRQHandler
                0x1a0001ac                SPI_IRQHandler
                0x1a0001ac                LCD_IRQHandler
                0x1a0001ac                VADC_IRQHandler
                0x1a0001ac                SGPIO_IRQHandler
                0x1a0001ac                TIMER1_IRQHandler
                0x1a0001ac                UART2_IRQHandler
                0x1a0001ac                GPIO2_IRQHandler
                0x1a0001ac                I2S1_IRQHandler
                0x1a0001ac                SSP1_IRQHandler
                0x1a0001ac                USB0_IRQHandler
                0x1a0001ac                GPIO3_IRQHandler
                0x1a0001ac                SCT_IRQHandler
                0x1a0001ac                I2C0_IRQHandler
                0x1a0001ac                WDT_IRQHandler
                0x1a0001ac                GPIO7_IRQHandler
                0x1a0001ac                SPIFI_IRQHandler
                0x1a0001ac                QEI_IRQHandler
                0x1a0001ac                ETH_IRQHandler
                0x1a0001ac                M0CORE_IRQHandler
                0x1a0001ac                CAN0_IRQHandler
                0x1a0001ac                GINT0_IRQHandler
                0x1a0001ac                M0s_IRQHandler
                0x1a0001ac                DAC_IRQHandler
                0x1a0001ac                GPIO0_IRQHandler
                0x1a0001ac                DMA_IRQHandler
                0x1a0001ac                EVRT_IRQHandler
                0x1a0001ac                TIMER2_IRQHandler
                0x1a0001ac                UART3_IRQHandler
                0x1a0001ac                MCPWM_IRQHandler
                0x1a0001ac                GINT1_IRQHandler
                0x1a0001ac                EZH_IRQHandler
                0x1a0001ac                GPIO4_IRQHandler
 *(.text*)
 *fill*         0x1a0001ae        0x2 00
 .text.pvPortMalloc
                0x1a0001b0       0xc0 ./src/FreeRTOS/src/heap_1.o
                0x1a0001b0                pvPortMalloc
 .text.vPortFree
                0x1a000270       0x1c ./src/FreeRTOS/src/heap_1.o
                0x1a000270                vPortFree
 .text.vListInitialise
                0x1a00028c       0x40 ./src/FreeRTOS/src/list.o
                0x1a00028c                vListInitialise
 .text.vListInitialiseItem
                0x1a0002cc       0x1c ./src/FreeRTOS/src/list.o
                0x1a0002cc                vListInitialiseItem
 .text.vListInsertEnd
                0x1a0002e8       0x48 ./src/FreeRTOS/src/list.o
                0x1a0002e8                vListInsertEnd
 .text.vListInsert
                0x1a000330       0x74 ./src/FreeRTOS/src/list.o
                0x1a000330                vListInsert
 .text.uxListRemove
                0x1a0003a4       0x58 ./src/FreeRTOS/src/list.o
                0x1a0003a4                uxListRemove
 .text.pxPortInitialiseStack
                0x1a0003fc       0x64 ./src/FreeRTOS/src/port.o
                0x1a0003fc                pxPortInitialiseStack
 .text.prvTaskExitError
                0x1a000460       0x20 ./src/FreeRTOS/src/port.o
 .text.SVC_Handler
                0x1a000480       0x20 ./src/FreeRTOS/src/port.o
                0x1a000480                SVC_Handler
 .text.prvPortStartFirstTask
                0x1a0004a0       0x14 ./src/FreeRTOS/src/port.o
 .text.xPortStartScheduler
                0x1a0004b4      0x108 ./src/FreeRTOS/src/port.o
                0x1a0004b4                xPortStartScheduler
 .text.vPortYield
                0x1a0005bc       0x20 ./src/FreeRTOS/src/port.o
                0x1a0005bc                vPortYield
 .text.vPortEnterCritical
                0x1a0005dc       0x2c ./src/FreeRTOS/src/port.o
                0x1a0005dc                vPortEnterCritical
 .text.vPortExitCritical
                0x1a000608       0x34 ./src/FreeRTOS/src/port.o
                0x1a000608                vPortExitCritical
 .text.ulPortSetInterruptMask
                0x1a00063c       0x14 ./src/FreeRTOS/src/port.o
                0x1a00063c                ulPortSetInterruptMask
 .text.vPortClearInterruptMask
                0x1a000650        0x8 ./src/FreeRTOS/src/port.o
                0x1a000650                vPortClearInterruptMask
 .text.PendSV_Handler
                0x1a000658       0x3c ./src/FreeRTOS/src/port.o
                0x1a000658                PendSV_Handler
 .text.SysTick_Handler
                0x1a000694       0x2c ./src/FreeRTOS/src/port.o
                0x1a000694                SysTick_Handler
 .text.vPortSetupTimerInterrupt
                0x1a0006c0       0x2c ./src/FreeRTOS/src/port.o
                0x1a0006c0                vPortSetupTimerInterrupt
 .text.xTaskGenericCreate
                0x1a0006ec      0x1c4 ./src/FreeRTOS/src/tasks.o
                0x1a0006ec                xTaskGenericCreate
 .text.vTaskDelay
                0x1a0008b0       0x5c ./src/FreeRTOS/src/tasks.o
                0x1a0008b0                vTaskDelay
 .text.vTaskStartScheduler
                0x1a00090c       0x80 ./src/FreeRTOS/src/tasks.o
                0x1a00090c                vTaskStartScheduler
 .text.vTaskSuspendAll
                0x1a00098c       0x24 ./src/FreeRTOS/src/tasks.o
                0x1a00098c                vTaskSuspendAll
 .text.xTaskResumeAll
                0x1a0009b0      0x174 ./src/FreeRTOS/src/tasks.o
                0x1a0009b0                xTaskResumeAll
 .text.xTaskIncrementTick
                0x1a000b24      0x24c ./src/FreeRTOS/src/tasks.o
                0x1a000b24                xTaskIncrementTick
 .text.vTaskSwitchContext
                0x1a000d70       0xe8 ./src/FreeRTOS/src/tasks.o
                0x1a000d70                vTaskSwitchContext
 .text.prvIdleTask
                0x1a000e58       0x24 ./src/FreeRTOS/src/tasks.o
 .text.prvInitialiseTCBVariables
                0x1a000e7c       0xa0 ./src/FreeRTOS/src/tasks.o
 .text.prvInitialiseTaskLists
                0x1a000f1c       0xa4 ./src/FreeRTOS/src/tasks.o
 .text.prvCheckTasksWaitingTermination
                0x1a000fc0       0x98 ./src/FreeRTOS/src/tasks.o
 .text.prvAddCurrentTaskToDelayedList
                0x1a001058       0x8c ./src/FreeRTOS/src/tasks.o
 .text.prvAllocateTCBAndStack
                0x1a0010e4       0x74 ./src/FreeRTOS/src/tasks.o
 .text.prvDeleteTCB
                0x1a001158       0x20 ./src/FreeRTOS/src/tasks.o
 .text.SetupLEDS
                0x1a001178       0x68 ./src/LED.o
                0x1a001178                SetupLEDS
 .text.LED1     0x1a0011e0       0x28 ./src/LED.o
                0x1a0011e0                LED1
 .text.LED2     0x1a001208       0x28 ./src/LED.o
                0x1a001208                LED2
 .text.ResetISR
                0x1a001230       0x94 ./src/cr_startup_lpc43xx.o
                0x1a001230                ResetISR
 .text.BK_TEST  0x1a0012c4       0x1c ./src/main.o
                0x1a0012c4                BK_TEST
 .text.vLEDTask0
                0x1a0012e0       0x34 ./src/main.o
 .text.vLEDTask1
                0x1a001314       0x34 ./src/main.o
 .text.main     0x1a001348       0x8c ./src/main.o
                0x1a001348                main
 .text.check_failed
                0x1a0013d4        0xc ./src/main.o
                0x1a0013d4                check_failed
 .text.CGU_Init
                0x1a0013e0       0x54 C:\Users\Bertus\Documents\LPCXpresso_5.2.6_2137\workspace8\CMSISv2p10_LPC43xx_DriverLib\Debug\libCMSISv2p10_LPC43xx_DriverLib.a(lpc43xx_cgu.o)
                0x1a0013e0                CGU_Init
 .text.CGU_GetPCLKFrequency
                0x1a001434      0x204 C:\Users\Bertus\Documents\LPCXpresso_5.2.6_2137\workspace8\CMSISv2p10_LPC43xx_DriverLib\Debug\libCMSISv2p10_LPC43xx_DriverLib.a(lpc43xx_cgu.o)
                0x1a001434                CGU_GetPCLKFrequency
 .text.CGU_UpdateClock
                0x1a001638      0x170 C:\Users\Bertus\Documents\LPCXpresso_5.2.6_2137\workspace8\CMSISv2p10_LPC43xx_DriverLib\Debug\libCMSISv2p10_LPC43xx_DriverLib.a(lpc43xx_cgu.o)
                0x1a001638                CGU_UpdateClock
 .text.CGU_SetXTALOSC
                0x1a0017a8       0x7c C:\Users\Bertus\Documents\LPCXpresso_5.2.6_2137\workspace8\CMSISv2p10_LPC43xx_DriverLib\Debug\libCMSISv2p10_LPC43xx_DriverLib.a(lpc43xx_cgu.o)
                0x1a0017a8                CGU_SetXTALOSC
 .text.CGU_EnableEntity
                0x1a001824      0x214 C:\Users\Bertus\Documents\LPCXpresso_5.2.6_2137\workspace8\CMSISv2p10_LPC43xx_DriverLib\Debug\libCMSISv2p10_LPC43xx_DriverLib.a(lpc43xx_cgu.o)
                0x1a001824                CGU_EnableEntity
 .text.CGU_EntityConnect
                0x1a001a38      0x104 C:\Users\Bertus\Documents\LPCXpresso_5.2.6_2137\workspace8\CMSISv2p10_LPC43xx_DriverLib\Debug\libCMSISv2p10_LPC43xx_DriverLib.a(lpc43xx_cgu.o)
                0x1a001a38                CGU_EntityConnect
 .text.CGU_SetPLL1
                0x1a001b3c      0x13c C:\Users\Bertus\Documents\LPCXpresso_5.2.6_2137\workspace8\CMSISv2p10_LPC43xx_DriverLib\Debug\libCMSISv2p10_LPC43xx_DriverLib.a(lpc43xx_cgu.o)
                0x1a001b3c                CGU_SetPLL1
 .text.GPIO_SetDir
                0x1a001c78       0x7c C:\Users\Bertus\Documents\LPCXpresso_5.2.6_2137\workspace8\CMSISv2p10_LPC43xx_DriverLib\Debug\libCMSISv2p10_LPC43xx_DriverLib.a(lpc43xx_gpio.o)
                0x1a001c78                GPIO_SetDir
 .text.GPIO_SetValue
                0x1a001cf4       0x2c C:\Users\Bertus\Documents\LPCXpresso_5.2.6_2137\workspace8\CMSISv2p10_LPC43xx_DriverLib\Debug\libCMSISv2p10_LPC43xx_DriverLib.a(lpc43xx_gpio.o)
                0x1a001cf4                GPIO_SetValue
 .text.GPIO_ClearValue
                0x1a001d20       0x2c C:\Users\Bertus\Documents\LPCXpresso_5.2.6_2137\workspace8\CMSISv2p10_LPC43xx_DriverLib\Debug\libCMSISv2p10_LPC43xx_DriverLib.a(lpc43xx_gpio.o)
                0x1a001d20                GPIO_ClearValue
 .text.scu_pinmux
                0x1a001d4c       0x4c C:\Users\Bertus\Documents\LPCXpresso_5.2.6_2137\workspace8\CMSISv2p10_LPC43xx_DriverLib\Debug\libCMSISv2p10_LPC43xx_DriverLib.a(lpc43xx_scu.o)
                0x1a001d4c                scu_pinmux
 .text.timer_delay_ms
                0x1a001d98       0xe8 C:\Users\Bertus\Documents\LPCXpresso_5.2.6_2137\workspace8\CMSISv2p10_LPC43xx_DriverLib\Debug\libCMSISv2p10_LPC43xx_DriverLib.a(lpc43xx_utils.o)
                0x1a001d98                timer_delay_ms
 .text.SystemInit
                0x1a001e80       0x48 C:\Users\Bertus\Documents\LPCXpresso_5.2.6_2137\workspace8\CMSISv2p10_LPC43xx_DriverLib\Debug\libCMSISv2p10_LPC43xx_DriverLib.a(system_LPC43xx.o)
                0x1a001e80                SystemInit
 .text.getPClock
                0x1a001ec8       0x68 C:\Users\Bertus\Documents\LPCXpresso_5.2.6_2137\workspace8\CMSISv2p10_LPC43xx_DriverLib\Debug\libCMSISv2p10_LPC43xx_DriverLib.a(lpc43xx_timer.o)
 .text.converUSecToVal
                0x1a001f30       0x64 C:\Users\Bertus\Documents\LPCXpresso_5.2.6_2137\workspace8\CMSISv2p10_LPC43xx_DriverLib\Debug\libCMSISv2p10_LPC43xx_DriverLib.a(lpc43xx_timer.o)
 .text.converPtrToTimeNum
                0x1a001f94       0x74 C:\Users\Bertus\Documents\LPCXpresso_5.2.6_2137\workspace8\CMSISv2p10_LPC43xx_DriverLib\Debug\libCMSISv2p10_LPC43xx_DriverLib.a(lpc43xx_timer.o)
 .text.TIM_GetIntStatus
                0x1a002008       0xc4 C:\Users\Bertus\Documents\LPCXpresso_5.2.6_2137\workspace8\CMSISv2p10_LPC43xx_DriverLib\Debug\libCMSISv2p10_LPC43xx_DriverLib.a(lpc43xx_timer.o)
                0x1a002008                TIM_GetIntStatus
 .text.TIM_ClearIntPending
                0x1a0020cc       0xac C:\Users\Bertus\Documents\LPCXpresso_5.2.6_2137\workspace8\CMSISv2p10_LPC43xx_DriverLib\Debug\libCMSISv2p10_LPC43xx_DriverLib.a(lpc43xx_timer.o)
                0x1a0020cc                TIM_ClearIntPending
 .text.TIM_Init
                0x1a002178      0x138 C:\Users\Bertus\Documents\LPCXpresso_5.2.6_2137\workspace8\CMSISv2p10_LPC43xx_DriverLib\Debug\libCMSISv2p10_LPC43xx_DriverLib.a(lpc43xx_timer.o)
                0x1a002178                TIM_Init
 .text.TIM_Cmd  0x1a0022b0       0x7c C:\Users\Bertus\Documents\LPCXpresso_5.2.6_2137\workspace8\CMSISv2p10_LPC43xx_DriverLib\Debug\libCMSISv2p10_LPC43xx_DriverLib.a(lpc43xx_timer.o)
                0x1a0022b0                TIM_Cmd
 .text.TIM_ConfigMatch
                0x1a00232c      0x1d0 C:\Users\Bertus\Documents\LPCXpresso_5.2.6_2137\workspace8\CMSISv2p10_LPC43xx_DriverLib\Debug\libCMSISv2p10_LPC43xx_DriverLib.a(lpc43xx_timer.o)
                0x1a00232c                TIM_ConfigMatch
 .text.memset   0x1a0024fc        0x4 c:/nxp/lpcxpresso_5.2.6_2137/lpcxpresso/tools/bin/../lib/gcc/arm-none-eabi/4.6.2/../../../../arm-none-eabi/lib/armv7e-m\libcr_c.a(memset.o)
                0x1a0024fc                memset
 .text.__weak_main
                0x1a002500        0x4 c:/nxp/lpcxpresso_5.2.6_2137/lpcxpresso/tools/bin/../lib/gcc/arm-none-eabi/4.6.2/../../../../arm-none-eabi/lib/armv7e-m\libcr_c.a(__weak__main.o)
                0x1a002500                __weak_main
                0x1a002500                __main
 .text.__aeabi_division_uldivmod
                0x1a002504      0x174 c:/nxp/lpcxpresso_5.2.6_2137/lpcxpresso/tools/bin/../lib/gcc/arm-none-eabi/4.6.2/armv7e-m\libcr_eabihelpers.a(division.o)
                0x1a002504                __aeabi_uldivmod
                0x1a002508                __bhs_ldivmod1
 .text.__aeabi_division_idiv0
                0x1a002678        0x2 c:/nxp/lpcxpresso_5.2.6_2137/lpcxpresso/tools/bin/../lib/gcc/arm-none-eabi/4.6.2/armv7e-m\libcr_eabihelpers.a(division.o)
                0x1a002678                __aeabi_idiv0
 .text.__aeabi_memset_lowlevel
                0x1a00267a       0x24 c:/nxp/lpcxpresso_5.2.6_2137/lpcxpresso/tools/bin/../lib/gcc/arm-none-eabi/4.6.2/armv7e-m\libcr_eabihelpers.a(memcpy.o)
                0x1a00267a                __aeabi_lowlevel_memset
 *(.rodata .rodata.*)
 *fill*         0x1a00269e        0x2 00
 .rodata        0x1a0026a0        0x8 ./src/FreeRTOS/src/tasks.o
 .rodata        0x1a0026a8       0x18 ./src/main.o
 .rodata.CGU_Entity_ControlReg_Offset
                0x1a0026c0       0x5c C:\Users\Bertus\Documents\LPCXpresso_5.2.6_2137\workspace8\CMSISv2p10_LPC43xx_DriverLib\Debug\libCMSISv2p10_LPC43xx_DriverLib.a(lpc43xx_cgu.o)
                0x1a0026c0                CGU_Entity_ControlReg_Offset
 .rodata.CGU_ConnectAlloc_Tbl
                0x1a00271c      0x300 C:\Users\Bertus\Documents\LPCXpresso_5.2.6_2137\workspace8\CMSISv2p10_LPC43xx_DriverLib\Debug\libCMSISv2p10_LPC43xx_DriverLib.a(lpc43xx_cgu.o)
                0x1a00271c                CGU_ConnectAlloc_Tbl
 .rodata.CGU_PERIPHERAL_Info
                0x1a002a1c      0x188 C:\Users\Bertus\Documents\LPCXpresso_5.2.6_2137\workspace8\CMSISv2p10_LPC43xx_DriverLib\Debug\libCMSISv2p10_LPC43xx_DriverLib.a(lpc43xx_cgu.o)
                0x1a002a1c                CGU_PERIPHERAL_Info
 .rodata        0x1a002ba4       0x18 C:\Users\Bertus\Documents\LPCXpresso_5.2.6_2137\workspace8\CMSISv2p10_LPC43xx_DriverLib\Debug\libCMSISv2p10_LPC43xx_DriverLib.a(lpc43xx_timer.o)
                0x1a002bbc                . = ALIGN (0x4)

.glue_7         0x1a002bbc        0x0
 .glue_7        0x00000000        0x0 linker stubs

.glue_7t        0x1a002bbc        0x0
 .glue_7t       0x00000000        0x0 linker stubs

.vfp11_veneer   0x1a002bbc        0x0
 .vfp11_veneer  0x00000000        0x0 linker stubs

.v4_bx          0x1a002bbc        0x0
 .v4_bx         0x00000000        0x0 linker stubs

.ARM.extab
 *(.ARM.extab* .gnu.linkonce.armextab.*)
                0x1a002bbc                __exidx_start = .

.ARM.exidx
 *(.ARM.exidx* .gnu.linkonce.armexidx.*)
                0x1a002bbc                __exidx_end = .
                0x1a002bbc                _etext = .

.data_RAM2      0x10080000        0x0 load address 0x1a002bbc
 FILL mask 0xff
 *(.data.$RAM2*)
 *(.data.$RamLoc40*)
                0x10080000                . = ALIGN (0x4)

.data_RAM3      0x20000000        0x0 load address 0x1a002bbc
 FILL mask 0xff
 *(.data.$RAM3*)
 *(.data.$RamAHB32*)
                0x20000000                . = ALIGN (0x4)

.data_RAM4      0x20008000        0x0 load address 0x1a002bbc
 FILL mask 0xff
 *(.data.$RAM4*)
 *(.data.$RamAHB16*)
                0x20008000                . = ALIGN (0x4)

.data_RAM5      0x2000c000        0x0 load address 0x1a002bbc
 FILL mask 0xff
 *(.data.$RAM5*)
 *(.data.$RamAHB_ETB16*)
                0x2000c000                . = ALIGN (0x4)

.uninit_RESERVED
                0x10000000        0x0
 *(.bss.$RESERVED*)
                0x10000000                . = ALIGN (0x4)
                0x10000000                _end_uninit_RESERVED = .

.data           0x10000000       0x50 load address 0x1a002bbc
 FILL mask 0xff
                0x10000000                _data = .
 *(vtable)
 *(.data*)
 .data.uxCriticalNesting
                0x10000000        0x4 ./src/FreeRTOS/src/port.o
 .data.xNextTaskUnblockTime
                0x10000004        0x4 ./src/FreeRTOS/src/tasks.o
 .data.CGU_ClockSourceFrequency
                0x10000008       0x44 C:\Users\Bertus\Documents\LPCXpresso_5.2.6_2137\workspace8\CMSISv2p10_LPC43xx_DriverLib\Debug\libCMSISv2p10_LPC43xx_DriverLib.a(lpc43xx_cgu.o)
                0x10000008                CGU_ClockSourceFrequency
 .data.SystemCoreClock
                0x1000004c        0x4 C:\Users\Bertus\Documents\LPCXpresso_5.2.6_2137\workspace8\CMSISv2p10_LPC43xx_DriverLib\Debug\libCMSISv2p10_LPC43xx_DriverLib.a(system_LPC43xx.o)
                0x1000004c                SystemCoreClock
                0x10000050                . = ALIGN (0x4)
                0x10000050                _edata = .

.bss_RAM2       0x10080000        0x0
 *(.bss.$RAM2*)
 *(.bss.$RamLoc40*)
                0x10080000                . = ALIGN (0x4)

.bss_RAM3       0x20000000        0x0
 *(.bss.$RAM3*)
 *(.bss.$RamAHB32*)
                0x20000000                . = ALIGN (0x4)

.bss_RAM4       0x20008000        0x0
 *(.bss.$RAM4*)
 *(.bss.$RamAHB16*)
                0x20008000                . = ALIGN (0x4)

.bss_RAM5       0x2000c000        0x0
 *(.bss.$RAM5*)
 *(.bss.$RamAHB_ETB16*)
                0x2000c000                . = ALIGN (0x4)

.bss            0x10000050     0x7a10
                0x10000050                _bss = .
 *(.bss*)
 .bss.ucHeap    0x10000050     0x78f0 ./src/FreeRTOS/src/heap_1.o
 .bss.xNextFreeByte
                0x10007940        0x4 ./src/FreeRTOS/src/heap_1.o
 .bss.pucAlignedHeap.6152
                0x10007944        0x4 ./src/FreeRTOS/src/heap_1.o
 .bss.ucMaxSysCallPriority
                0x10007948        0x1 ./src/FreeRTOS/src/port.o
 *fill*         0x10007949        0x3 00
 .bss.ulMaxPRIGROUPValue
                0x1000794c        0x4 ./src/FreeRTOS/src/port.o
 .bss.pxCurrentTCB
                0x10007950        0x4 ./src/FreeRTOS/src/tasks.o
                0x10007950                pxCurrentTCB
 .bss.pxReadyTasksLists
                0x10007954       0x64 ./src/FreeRTOS/src/tasks.o
 .bss.xDelayedTaskList1
                0x100079b8       0x14 ./src/FreeRTOS/src/tasks.o
 .bss.xDelayedTaskList2
                0x100079cc       0x14 ./src/FreeRTOS/src/tasks.o
 .bss.pxDelayedTaskList
                0x100079e0        0x4 ./src/FreeRTOS/src/tasks.o
 .bss.pxOverflowDelayedTaskList
                0x100079e4        0x4 ./src/FreeRTOS/src/tasks.o
 .bss.xPendingReadyList
                0x100079e8       0x14 ./src/FreeRTOS/src/tasks.o
 .bss.xTasksWaitingTermination
                0x100079fc       0x14 ./src/FreeRTOS/src/tasks.o
 .bss.uxTasksDeleted
                0x10007a10        0x4 ./src/FreeRTOS/src/tasks.o
 .bss.xSuspendedTaskList
                0x10007a14       0x14 ./src/FreeRTOS/src/tasks.o
 .bss.uxCurrentNumberOfTasks
                0x10007a28        0x4 ./src/FreeRTOS/src/tasks.o
 .bss.xTickCount
                0x10007a2c        0x4 ./src/FreeRTOS/src/tasks.o
 .bss.uxTopReadyPriority
                0x10007a30        0x4 ./src/FreeRTOS/src/tasks.o
 .bss.xSchedulerRunning
                0x10007a34        0x4 ./src/FreeRTOS/src/tasks.o
 .bss.uxSchedulerSuspended
                0x10007a38        0x4 ./src/FreeRTOS/src/tasks.o
 .bss.uxPendedTicks
                0x10007a3c        0x4 ./src/FreeRTOS/src/tasks.o
 .bss.xYieldPending
                0x10007a40        0x4 ./src/FreeRTOS/src/tasks.o
 .bss.xNumOfOverflows
                0x10007a44        0x4 ./src/FreeRTOS/src/tasks.o
 .bss.uxTaskNumber
                0x10007a48        0x4 ./src/FreeRTOS/src/tasks.o
 *(COMMON)
 COMMON         0x10007a4c       0x14 C:\Users\Bertus\Documents\LPCXpresso_5.2.6_2137\workspace8\CMSISv2p10_LPC43xx_DriverLib\Debug\libCMSISv2p10_LPC43xx_DriverLib.a(lpc43xx_utils.o)
                0x10007a4c                TIM_ConfigStruct
                0x10007a54                TIM_MatchConfigStruct
                0x10007a60                . = ALIGN (0x4)
                0x10007a60                _ebss = .
                0x10007a60                PROVIDE (end, .)

.noinit_RAM2    0x10080000        0x0
 *(.noinit.$RAM2*)
 *(.noinit.$RamLoc40*)
                0x10080000                . = ALIGN (0x4)

.noinit_RAM3    0x20000000        0x0
 *(.noinit.$RAM3*)
 *(.noinit.$RamAHB32*)
                0x20000000                . = ALIGN (0x4)

.noinit_RAM4    0x20008000        0x0
 *(.noinit.$RAM4*)
 *(.noinit.$RamAHB16*)
                0x20008000                . = ALIGN (0x4)

.noinit_RAM5    0x2000c000        0x0
 *(.noinit.$RAM5*)
 *(.noinit.$RamAHB_ETB16*)
                0x2000c000                . = ALIGN (0x4)

.noinit         0x10007a60        0x0
                0x10007a60                _noinit = .
 *(.noinit*)
                0x10007a60                . = ALIGN (0x4)
                0x10007a60                _end_noinit = .
                0x10007a60                PROVIDE (_pvHeapStart, .)
                0x10008000                PROVIDE (_vStackTop, (__top_RamLoc32 - 0x0))
OUTPUT(Test 2 LED - FreeTROS.axf elf32-littlearm)

.debug_info     0x00000000     0x720e
 .debug_info    0x00000000      0x4f3 ./src/FreeRTOS/src/croutine.o
 .debug_info    0x000004f3      0x18d ./src/FreeRTOS/src/heap_1.o
 .debug_info    0x00000680      0x2d2 ./src/FreeRTOS/src/list.o
 .debug_info    0x00000952      0x338 ./src/FreeRTOS/src/port.o
 .debug_info    0x00000c8a      0xbae ./src/FreeRTOS/src/queue.o
 .debug_info    0x00001838     0x10ba ./src/FreeRTOS/src/tasks.o
 .debug_info    0x000028f2       0xa3 ./src/FreeRTOS/src/timers.o
 .debug_info    0x00002995      0x10e ./src/LED.o
 .debug_info    0x00002aa3      0x373 ./src/cr_startup_lpc43xx.o
 .debug_info    0x00002e16      0x1e5 ./src/main.o
 .debug_info    0x00002ffb     0x170e C:\Users\Bertus\Documents\LPCXpresso_5.2.6_2137\workspace8\CMSISv2p10_LPC43xx_DriverLib\Debug\libCMSISv2p10_LPC43xx_DriverLib.a(lpc43xx_cgu.o)
 .debug_info    0x00004709     0x14d7 C:\Users\Bertus\Documents\LPCXpresso_5.2.6_2137\workspace8\CMSISv2p10_LPC43xx_DriverLib\Debug\libCMSISv2p10_LPC43xx_DriverLib.a(lpc43xx_gpio.o)
 .debug_info    0x00005be0      0x123 C:\Users\Bertus\Documents\LPCXpresso_5.2.6_2137\workspace8\CMSISv2p10_LPC43xx_DriverLib\Debug\libCMSISv2p10_LPC43xx_DriverLib.a(lpc43xx_scu.o)
 .debug_info    0x00005d03      0x3e2 C:\Users\Bertus\Documents\LPCXpresso_5.2.6_2137\workspace8\CMSISv2p10_LPC43xx_DriverLib\Debug\libCMSISv2p10_LPC43xx_DriverLib.a(lpc43xx_utils.o)
 .debug_info    0x000060e5      0x756 C:\Users\Bertus\Documents\LPCXpresso_5.2.6_2137\workspace8\CMSISv2p10_LPC43xx_DriverLib\Debug\libCMSISv2p10_LPC43xx_DriverLib.a(system_LPC43xx.o)
 .debug_info    0x0000683b      0x9d3 C:\Users\Bertus\Documents\LPCXpresso_5.2.6_2137\workspace8\CMSISv2p10_LPC43xx_DriverLib\Debug\libCMSISv2p10_LPC43xx_DriverLib.a(lpc43xx_timer.o)

.debug_abbrev   0x00000000     0x1337
 .debug_abbrev  0x00000000      0x19b ./src/FreeRTOS/src/croutine.o
 .debug_abbrev  0x0000019b       0xfe ./src/FreeRTOS/src/heap_1.o
 .debug_abbrev  0x00000299       0xd6 ./src/FreeRTOS/src/list.o
 .debug_abbrev  0x0000036f      0x19b ./src/FreeRTOS/src/port.o
 .debug_abbrev  0x0000050a      0x1aa ./src/FreeRTOS/src/queue.o
 .debug_abbrev  0x000006b4      0x1ba ./src/FreeRTOS/src/tasks.o
 .debug_abbrev  0x0000086e       0x51 ./src/FreeRTOS/src/timers.o
 .debug_abbrev  0x000008bf       0x95 ./src/LED.o
 .debug_abbrev  0x00000954      0x18c ./src/cr_startup_lpc43xx.o
 .debug_abbrev  0x00000ae0       0xcd ./src/main.o
 .debug_abbrev  0x00000bad      0x1a8 C:\Users\Bertus\Documents\LPCXpresso_5.2.6_2137\workspace8\CMSISv2p10_LPC43xx_DriverLib\Debug\libCMSISv2p10_LPC43xx_DriverLib.a(lpc43xx_cgu.o)
 .debug_abbrev  0x00000d55      0x16c C:\Users\Bertus\Documents\LPCXpresso_5.2.6_2137\workspace8\CMSISv2p10_LPC43xx_DriverLib\Debug\libCMSISv2p10_LPC43xx_DriverLib.a(lpc43xx_gpio.o)
 .debug_abbrev  0x00000ec1       0xa0 C:\Users\Bertus\Documents\LPCXpresso_5.2.6_2137\workspace8\CMSISv2p10_LPC43xx_DriverLib\Debug\libCMSISv2p10_LPC43xx_DriverLib.a(lpc43xx_scu.o)
 .debug_abbrev  0x00000f61      0x120 C:\Users\Bertus\Documents\LPCXpresso_5.2.6_2137\workspace8\CMSISv2p10_LPC43xx_DriverLib\Debug\libCMSISv2p10_LPC43xx_DriverLib.a(lpc43xx_utils.o)
 .debug_abbrev  0x00001081      0x100 C:\Users\Bertus\Documents\LPCXpresso_5.2.6_2137\workspace8\CMSISv2p10_LPC43xx_DriverLib\Debug\libCMSISv2p10_LPC43xx_DriverLib.a(system_LPC43xx.o)
 .debug_abbrev  0x00001181      0x1b6 C:\Users\Bertus\Documents\LPCXpresso_5.2.6_2137\workspace8\CMSISv2p10_LPC43xx_DriverLib\Debug\libCMSISv2p10_LPC43xx_DriverLib.a(lpc43xx_timer.o)

.debug_loc      0x00000000     0x20da
 .debug_loc     0x00000000      0x188 ./src/FreeRTOS/src/croutine.o
 .debug_loc     0x00000188       0xc8 ./src/FreeRTOS/src/heap_1.o
 .debug_loc     0x00000250      0x118 ./src/FreeRTOS/src/list.o
 .debug_loc     0x00000368      0x1dc ./src/FreeRTOS/src/port.o
 .debug_loc     0x00000544      0x5e8 ./src/FreeRTOS/src/queue.o
 .debug_loc     0x00000b2c      0x858 ./src/FreeRTOS/src/tasks.o
 .debug_loc     0x00001384       0x84 ./src/LED.o
 .debug_loc     0x00001408      0x176 ./src/cr_startup_lpc43xx.o
 .debug_loc     0x0000157e      0x10c ./src/main.o
 .debug_loc     0x0000168a      0x2ec C:\Users\Bertus\Documents\LPCXpresso_5.2.6_2137\workspace8\CMSISv2p10_LPC43xx_DriverLib\Debug\libCMSISv2p10_LPC43xx_DriverLib.a(lpc43xx_cgu.o)
 .debug_loc     0x00001976      0x2a0 C:\Users\Bertus\Documents\LPCXpresso_5.2.6_2137\workspace8\CMSISv2p10_LPC43xx_DriverLib\Debug\libCMSISv2p10_LPC43xx_DriverLib.a(lpc43xx_gpio.o)
 .debug_loc     0x00001c16       0x38 C:\Users\Bertus\Documents\LPCXpresso_5.2.6_2137\workspace8\CMSISv2p10_LPC43xx_DriverLib\Debug\libCMSISv2p10_LPC43xx_DriverLib.a(lpc43xx_scu.o)
 .debug_loc     0x00001c4e       0x70 C:\Users\Bertus\Documents\LPCXpresso_5.2.6_2137\workspace8\CMSISv2p10_LPC43xx_DriverLib\Debug\libCMSISv2p10_LPC43xx_DriverLib.a(lpc43xx_utils.o)
 .debug_loc     0x00001cbe       0x2c C:\Users\Bertus\Documents\LPCXpresso_5.2.6_2137\workspace8\CMSISv2p10_LPC43xx_DriverLib\Debug\libCMSISv2p10_LPC43xx_DriverLib.a(system_LPC43xx.o)
 .debug_loc     0x00001cea      0x3f0 C:\Users\Bertus\Documents\LPCXpresso_5.2.6_2137\workspace8\CMSISv2p10_LPC43xx_DriverLib\Debug\libCMSISv2p10_LPC43xx_DriverLib.a(lpc43xx_timer.o)

.debug_aranges  0x00000000      0x698
 .debug_aranges
                0x00000000       0x50 ./src/FreeRTOS/src/croutine.o
 .debug_aranges
                0x00000050       0x38 ./src/FreeRTOS/src/heap_1.o
 .debug_aranges
                0x00000088       0x40 ./src/FreeRTOS/src/list.o
 .debug_aranges
                0x000000c8       0x90 ./src/FreeRTOS/src/port.o
 .debug_aranges
                0x00000158       0xf0 ./src/FreeRTOS/src/queue.o
 .debug_aranges
                0x00000248      0x150 ./src/FreeRTOS/src/tasks.o
 .debug_aranges
                0x00000398       0x30 ./src/LED.o
 .debug_aranges
                0x000003c8       0x80 ./src/cr_startup_lpc43xx.o
 .debug_aranges
                0x00000448       0x40 ./src/main.o
 .debug_aranges
                0x00000488       0x88 C:\Users\Bertus\Documents\LPCXpresso_5.2.6_2137\workspace8\CMSISv2p10_LPC43xx_DriverLib\Debug\libCMSISv2p10_LPC43xx_DriverLib.a(lpc43xx_cgu.o)
 .debug_aranges
                0x00000510       0x78 C:\Users\Bertus\Documents\LPCXpresso_5.2.6_2137\workspace8\CMSISv2p10_LPC43xx_DriverLib\Debug\libCMSISv2p10_LPC43xx_DriverLib.a(lpc43xx_gpio.o)
 .debug_aranges
                0x00000588       0x20 C:\Users\Bertus\Documents\LPCXpresso_5.2.6_2137\workspace8\CMSISv2p10_LPC43xx_DriverLib\Debug\libCMSISv2p10_LPC43xx_DriverLib.a(lpc43xx_scu.o)
 .debug_aranges
                0x000005a8       0x28 C:\Users\Bertus\Documents\LPCXpresso_5.2.6_2137\workspace8\CMSISv2p10_LPC43xx_DriverLib\Debug\libCMSISv2p10_LPC43xx_DriverLib.a(lpc43xx_utils.o)
 .debug_aranges
                0x000005d0       0x20 C:\Users\Bertus\Documents\LPCXpresso_5.2.6_2137\workspace8\CMSISv2p10_LPC43xx_DriverLib\Debug\libCMSISv2p10_LPC43xx_DriverLib.a(system_LPC43xx.o)
 .debug_aranges
                0x000005f0       0xa8 C:\Users\Bertus\Documents\LPCXpresso_5.2.6_2137\workspace8\CMSISv2p10_LPC43xx_DriverLib\Debug\libCMSISv2p10_LPC43xx_DriverLib.a(lpc43xx_timer.o)

.debug_ranges   0x00000000      0x5a8
 .debug_ranges  0x00000000       0x40 ./src/FreeRTOS/src/croutine.o
 .debug_ranges  0x00000040       0x28 ./src/FreeRTOS/src/heap_1.o
 .debug_ranges  0x00000068       0x30 ./src/FreeRTOS/src/list.o
 .debug_ranges  0x00000098       0x80 ./src/FreeRTOS/src/port.o
 .debug_ranges  0x00000118       0xe0 ./src/FreeRTOS/src/queue.o
 .debug_ranges  0x000001f8      0x140 ./src/FreeRTOS/src/tasks.o
 .debug_ranges  0x00000338       0x20 ./src/LED.o
 .debug_ranges  0x00000358       0x70 ./src/cr_startup_lpc43xx.o
 .debug_ranges  0x000003c8       0x30 ./src/main.o
 .debug_ranges  0x000003f8       0x78 C:\Users\Bertus\Documents\LPCXpresso_5.2.6_2137\workspace8\CMSISv2p10_LPC43xx_DriverLib\Debug\libCMSISv2p10_LPC43xx_DriverLib.a(lpc43xx_cgu.o)
 .debug_ranges  0x00000470       0x68 C:\Users\Bertus\Documents\LPCXpresso_5.2.6_2137\workspace8\CMSISv2p10_LPC43xx_DriverLib\Debug\libCMSISv2p10_LPC43xx_DriverLib.a(lpc43xx_gpio.o)
 .debug_ranges  0x000004d8       0x10 C:\Users\Bertus\Documents\LPCXpresso_5.2.6_2137\workspace8\CMSISv2p10_LPC43xx_DriverLib\Debug\libCMSISv2p10_LPC43xx_DriverLib.a(lpc43xx_scu.o)
 .debug_ranges  0x000004e8       0x18 C:\Users\Bertus\Documents\LPCXpresso_5.2.6_2137\workspace8\CMSISv2p10_LPC43xx_DriverLib\Debug\libCMSISv2p10_LPC43xx_DriverLib.a(lpc43xx_utils.o)
 .debug_ranges  0x00000500       0x10 C:\Users\Bertus\Documents\LPCXpresso_5.2.6_2137\workspace8\CMSISv2p10_LPC43xx_DriverLib\Debug\libCMSISv2p10_LPC43xx_DriverLib.a(system_LPC43xx.o)
 .debug_ranges  0x00000510       0x98 C:\Users\Bertus\Documents\LPCXpresso_5.2.6_2137\workspace8\CMSISv2p10_LPC43xx_DriverLib\Debug\libCMSISv2p10_LPC43xx_DriverLib.a(lpc43xx_timer.o)

.debug_line     0x00000000     0x5faa
 .debug_line    0x00000000      0x5cb ./src/FreeRTOS/src/croutine.o
 .debug_line    0x000005cb      0x4fd ./src/FreeRTOS/src/heap_1.o
 .debug_line    0x00000ac8      0x50b ./src/FreeRTOS/src/list.o
 .debug_line    0x00000fd3      0x5e8 ./src/FreeRTOS/src/port.o
 .debug_line    0x000015bb      0x9f8 ./src/FreeRTOS/src/queue.o
 .debug_line    0x00001fb3      0xc3d ./src/FreeRTOS/src/tasks.o
 .debug_line    0x00002bf0      0x4aa ./src/FreeRTOS/src/timers.o
 .debug_line    0x0000309a      0x43d ./src/LED.o
 .debug_line    0x000034d7      0x45c ./src/cr_startup_lpc43xx.o
 .debug_line    0x00003933      0x624 ./src/main.o
 .debug_line    0x00003f57      0x6f9 C:\Users\Bertus\Documents\LPCXpresso_5.2.6_2137\workspace8\CMSISv2p10_LPC43xx_DriverLib\Debug\libCMSISv2p10_LPC43xx_DriverLib.a(lpc43xx_cgu.o)
 .debug_line    0x00004650      0x571 C:\Users\Bertus\Documents\LPCXpresso_5.2.6_2137\workspace8\CMSISv2p10_LPC43xx_DriverLib\Debug\libCMSISv2p10_LPC43xx_DriverLib.a(lpc43xx_gpio.o)
 .debug_line    0x00004bc1      0x3f4 C:\Users\Bertus\Documents\LPCXpresso_5.2.6_2137\workspace8\CMSISv2p10_LPC43xx_DriverLib\Debug\libCMSISv2p10_LPC43xx_DriverLib.a(lpc43xx_scu.o)
 .debug_line    0x00004fb5      0x442 C:\Users\Bertus\Documents\LPCXpresso_5.2.6_2137\workspace8\CMSISv2p10_LPC43xx_DriverLib\Debug\libCMSISv2p10_LPC43xx_DriverLib.a(lpc43xx_utils.o)
 .debug_line    0x000053f7      0x3da C:\Users\Bertus\Documents\LPCXpresso_5.2.6_2137\workspace8\CMSISv2p10_LPC43xx_DriverLib\Debug\libCMSISv2p10_LPC43xx_DriverLib.a(system_LPC43xx.o)
 .debug_line    0x000057d1      0x7d9 C:\Users\Bertus\Documents\LPCXpresso_5.2.6_2137\workspace8\CMSISv2p10_LPC43xx_DriverLib\Debug\libCMSISv2p10_LPC43xx_DriverLib.a(lpc43xx_timer.o)

.debug_macinfo  0x00000000    0xa964f
 .debug_macinfo
                0x00000000     0xbbce ./src/FreeRTOS/src/croutine.o
 .debug_macinfo
                0x0000bbce     0xb5d1 ./src/FreeRTOS/src/heap_1.o
 .debug_macinfo
                0x0001719f     0xb1a2 ./src/FreeRTOS/src/list.o
 .debug_macinfo
                0x00022341     0xb9e1 ./src/FreeRTOS/src/port.o
 .debug_macinfo
                0x0002dd22     0xc273 ./src/FreeRTOS/src/queue.o
 .debug_macinfo
                0x00039f95     0xc24d ./src/FreeRTOS/src/tasks.o
 .debug_macinfo
                0x000461e2     0xc60b ./src/FreeRTOS/src/timers.o
 .debug_macinfo
                0x000527ed     0x949c ./src/LED.o
 .debug_macinfo
                0x0005bc89     0x90b8 ./src/cr_startup_lpc43xx.o
 .debug_macinfo
                0x00064d41     0xbfb5 ./src/main.o
 .debug_macinfo
                0x00070cf6     0x986d C:\Users\Bertus\Documents\LPCXpresso_5.2.6_2137\workspace8\CMSISv2p10_LPC43xx_DriverLib\Debug\libCMSISv2p10_LPC43xx_DriverLib.a(lpc43xx_cgu.o)
 .debug_macinfo
                0x0007a563     0x9406 C:\Users\Bertus\Documents\LPCXpresso_5.2.6_2137\workspace8\CMSISv2p10_LPC43xx_DriverLib\Debug\libCMSISv2p10_LPC43xx_DriverLib.a(lpc43xx_gpio.o)
 .debug_macinfo
                0x00083969     0x940d C:\Users\Bertus\Documents\LPCXpresso_5.2.6_2137\workspace8\CMSISv2p10_LPC43xx_DriverLib\Debug\libCMSISv2p10_LPC43xx_DriverLib.a(lpc43xx_scu.o)
 .debug_macinfo
                0x0008cd76     0x9aba C:\Users\Bertus\Documents\LPCXpresso_5.2.6_2137\workspace8\CMSISv2p10_LPC43xx_DriverLib\Debug\libCMSISv2p10_LPC43xx_DriverLib.a(lpc43xx_utils.o)
 .debug_macinfo
                0x00096830     0x9044 C:\Users\Bertus\Documents\LPCXpresso_5.2.6_2137\workspace8\CMSISv2p10_LPC43xx_DriverLib\Debug\libCMSISv2p10_LPC43xx_DriverLib.a(system_LPC43xx.o)
 .debug_macinfo
                0x0009f874     0x9ddb C:\Users\Bertus\Documents\LPCXpresso_5.2.6_2137\workspace8\CMSISv2p10_LPC43xx_DriverLib\Debug\libCMSISv2p10_LPC43xx_DriverLib.a(lpc43xx_timer.o)

.debug_str      0x00000000     0x3a95
 .debug_str     0x00000000      0x453 ./src/FreeRTOS/src/croutine.o
                                0x49d (size before relaxing)
 .debug_str     0x00000453       0x9f ./src/FreeRTOS/src/heap_1.o
                                0x1df (size before relaxing)
 .debug_str     0x000004f2       0xaf ./src/FreeRTOS/src/list.o
                                0x28d (size before relaxing)
 .debug_str     0x000005a1      0x23a ./src/FreeRTOS/src/port.o
                                0x38c (size before relaxing)
 .debug_str     0x000007db      0x4a3 ./src/FreeRTOS/src/queue.o
                                0x6c6 (size before relaxing)
 .debug_str     0x00000c7e      0x7b0 ./src/FreeRTOS/src/tasks.o
                                0xaab (size before relaxing)
 .debug_str     0x0000142e       0x1d ./src/FreeRTOS/src/timers.o
                                0x15d (size before relaxing)
 .debug_str     0x0000144b       0x30 ./src/LED.o
                                0x163 (size before relaxing)
 .debug_str     0x0000147b      0x175 ./src/cr_startup_lpc43xx.o
                                0x2d9 (size before relaxing)
 .debug_str     0x000015f0       0x71 ./src/main.o
                                0x1dc (size before relaxing)
 .debug_str     0x00001661     0x142d C:\Users\Bertus\Documents\LPCXpresso_5.2.6_2137\workspace8\CMSISv2p10_LPC43xx_DriverLib\Debug\libCMSISv2p10_LPC43xx_DriverLib.a(lpc43xx_cgu.o)
                               0x1528 (size before relaxing)
 .debug_str     0x00002a8e      0x789 C:\Users\Bertus\Documents\LPCXpresso_5.2.6_2137\workspace8\CMSISv2p10_LPC43xx_DriverLib\Debug\libCMSISv2p10_LPC43xx_DriverLib.a(lpc43xx_gpio.o)
                                0x98d (size before relaxing)
 .debug_str     0x00003217       0x38 C:\Users\Bertus\Documents\LPCXpresso_5.2.6_2137\workspace8\CMSISv2p10_LPC43xx_DriverLib\Debug\libCMSISv2p10_LPC43xx_DriverLib.a(lpc43xx_scu.o)
                                0x183 (size before relaxing)
 .debug_str     0x0000324f      0x231 C:\Users\Bertus\Documents\LPCXpresso_5.2.6_2137\workspace8\CMSISv2p10_LPC43xx_DriverLib\Debug\libCMSISv2p10_LPC43xx_DriverLib.a(lpc43xx_utils.o)
                                0x3af (size before relaxing)
 .debug_str     0x00003480      0x35d C:\Users\Bertus\Documents\LPCXpresso_5.2.6_2137\workspace8\CMSISv2p10_LPC43xx_DriverLib\Debug\libCMSISv2p10_LPC43xx_DriverLib.a(system_LPC43xx.o)
                                0x536 (size before relaxing)
 .debug_str     0x000037dd      0x2b8 C:\Users\Bertus\Documents\LPCXpresso_5.2.6_2137\workspace8\CMSISv2p10_LPC43xx_DriverLib\Debug\libCMSISv2p10_LPC43xx_DriverLib.a(lpc43xx_timer.o)
                                0x98d (size before relaxing)

.comment        0x00000000       0x70
 .comment       0x00000000       0x70 ./src/FreeRTOS/src/croutine.o
                                 0x71 (size before relaxing)
 .comment       0x00000000       0x71 ./src/FreeRTOS/src/heap_1.o
 .comment       0x00000000       0x71 ./src/FreeRTOS/src/list.o
 .comment       0x00000000       0x71 ./src/FreeRTOS/src/port.o
 .comment       0x00000000       0x71 ./src/FreeRTOS/src/queue.o
 .comment       0x00000000       0x71 ./src/FreeRTOS/src/tasks.o
 .comment       0x00000000       0x71 ./src/FreeRTOS/src/timers.o
 .comment       0x00000000       0x71 ./src/LED.o
 .comment       0x00000000       0x71 ./src/cr_startup_lpc43xx.o
 .comment       0x00000000       0x71 ./src/main.o
 .comment       0x00000000       0x71 C:\Users\Bertus\Documents\LPCXpresso_5.2.6_2137\workspace8\CMSISv2p10_LPC43xx_DriverLib\Debug\libCMSISv2p10_LPC43xx_DriverLib.a(lpc43xx_cgu.o)
 .comment       0x00000000       0x71 C:\Users\Bertus\Documents\LPCXpresso_5.2.6_2137\workspace8\CMSISv2p10_LPC43xx_DriverLib\Debug\libCMSISv2p10_LPC43xx_DriverLib.a(lpc43xx_gpio.o)
 .comment       0x00000000       0x71 C:\Users\Bertus\Documents\LPCXpresso_5.2.6_2137\workspace8\CMSISv2p10_LPC43xx_DriverLib\Debug\libCMSISv2p10_LPC43xx_DriverLib.a(lpc43xx_scu.o)
 .comment       0x00000000       0x71 C:\Users\Bertus\Documents\LPCXpresso_5.2.6_2137\workspace8\CMSISv2p10_LPC43xx_DriverLib\Debug\libCMSISv2p10_LPC43xx_DriverLib.a(lpc43xx_utils.o)
 .comment       0x00000000       0x71 C:\Users\Bertus\Documents\LPCXpresso_5.2.6_2137\workspace8\CMSISv2p10_LPC43xx_DriverLib\Debug\libCMSISv2p10_LPC43xx_DriverLib.a(system_LPC43xx.o)
 .comment       0x00000000       0x71 C:\Users\Bertus\Documents\LPCXpresso_5.2.6_2137\workspace8\CMSISv2p10_LPC43xx_DriverLib\Debug\libCMSISv2p10_LPC43xx_DriverLib.a(lpc43xx_timer.o)
 .comment       0x00000000       0x71 c:/nxp/lpcxpresso_5.2.6_2137/lpcxpresso/tools/bin/../lib/gcc/arm-none-eabi/4.6.2/../../../../arm-none-eabi/lib/armv7e-m\libcr_c.a(memcpy.o)
 .comment       0x00000000       0x71 c:/nxp/lpcxpresso_5.2.6_2137/lpcxpresso/tools/bin/../lib/gcc/arm-none-eabi/4.6.2/../../../../arm-none-eabi/lib/armv7e-m\libcr_c.a(memset.o)
 .comment       0x00000000       0x71 c:/nxp/lpcxpresso_5.2.6_2137/lpcxpresso/tools/bin/../lib/gcc/arm-none-eabi/4.6.2/../../../../arm-none-eabi/lib/armv7e-m\libcr_c.a(__weak__main.o)

.ARM.attributes
                0x00000000       0x37
 .ARM.attributes
                0x00000000       0x39 ./src/FreeRTOS/src/croutine.o
 .ARM.attributes
                0x00000039       0x39 ./src/FreeRTOS/src/heap_1.o
 .ARM.attributes
                0x00000072       0x39 ./src/FreeRTOS/src/list.o
 .ARM.attributes
                0x000000ab       0x39 ./src/FreeRTOS/src/port.o
 .ARM.attributes
                0x000000e4       0x39 ./src/FreeRTOS/src/queue.o
 .ARM.attributes
                0x0000011d       0x39 ./src/FreeRTOS/src/tasks.o
 .ARM.attributes
                0x00000156       0x39 ./src/FreeRTOS/src/timers.o
 .ARM.attributes
                0x0000018f       0x39 ./src/LED.o
 .ARM.attributes
                0x000001c8       0x39 ./src/cr_startup_lpc43xx.o
 .ARM.attributes
                0x00000201       0x39 ./src/main.o
 .ARM.attributes
                0x0000023a       0x39 C:\Users\Bertus\Documents\LPCXpresso_5.2.6_2137\workspace8\CMSISv2p10_LPC43xx_DriverLib\Debug\libCMSISv2p10_LPC43xx_DriverLib.a(lpc43xx_cgu.o)
 .ARM.attributes
                0x00000273       0x39 C:\Users\Bertus\Documents\LPCXpresso_5.2.6_2137\workspace8\CMSISv2p10_LPC43xx_DriverLib\Debug\libCMSISv2p10_LPC43xx_DriverLib.a(lpc43xx_gpio.o)
 .ARM.attributes
                0x000002ac       0x39 C:\Users\Bertus\Documents\LPCXpresso_5.2.6_2137\workspace8\CMSISv2p10_LPC43xx_DriverLib\Debug\libCMSISv2p10_LPC43xx_DriverLib.a(lpc43xx_scu.o)
 .ARM.attributes
                0x000002e5       0x39 C:\Users\Bertus\Documents\LPCXpresso_5.2.6_2137\workspace8\CMSISv2p10_LPC43xx_DriverLib\Debug\libCMSISv2p10_LPC43xx_DriverLib.a(lpc43xx_utils.o)
 .ARM.attributes
                0x0000031e       0x39 C:\Users\Bertus\Documents\LPCXpresso_5.2.6_2137\workspace8\CMSISv2p10_LPC43xx_DriverLib\Debug\libCMSISv2p10_LPC43xx_DriverLib.a(system_LPC43xx.o)
 .ARM.attributes
                0x00000357       0x39 C:\Users\Bertus\Documents\LPCXpresso_5.2.6_2137\workspace8\CMSISv2p10_LPC43xx_DriverLib\Debug\libCMSISv2p10_LPC43xx_DriverLib.a(lpc43xx_timer.o)
 .ARM.attributes
                0x00000390       0x33 c:/nxp/lpcxpresso_5.2.6_2137/lpcxpresso/tools/bin/../lib/gcc/arm-none-eabi/4.6.2/../../../../arm-none-eabi/lib/armv7e-m\libcr_c.a(memcpy.o)
 .ARM.attributes
                0x000003c3       0x33 c:/nxp/lpcxpresso_5.2.6_2137/lpcxpresso/tools/bin/../lib/gcc/arm-none-eabi/4.6.2/../../../../arm-none-eabi/lib/armv7e-m\libcr_c.a(memset.o)
 .ARM.attributes
                0x000003f6       0x33 c:/nxp/lpcxpresso_5.2.6_2137/lpcxpresso/tools/bin/../lib/gcc/arm-none-eabi/4.6.2/../../../../arm-none-eabi/lib/armv7e-m\libcr_c.a(__weak__main.o)
 .ARM.attributes
                0x00000429       0x21 c:/nxp/lpcxpresso_5.2.6_2137/lpcxpresso/tools/bin/../lib/gcc/arm-none-eabi/4.6.2/armv7e-m\libcr_eabihelpers.a(division.o)
 .ARM.attributes
                0x0000044a       0x21 c:/nxp/lpcxpresso_5.2.6_2137/lpcxpresso/tools/bin/../lib/gcc/arm-none-eabi/4.6.2/armv7e-m\libcr_eabihelpers.a(memcpy.o)

.debug_frame    0x00000000     0x139c
 .debug_frame   0x00000000       0xf0 ./src/FreeRTOS/src/croutine.o
 .debug_frame   0x000000f0       0x80 ./src/FreeRTOS/src/heap_1.o
 .debug_frame   0x00000170       0x9c ./src/FreeRTOS/src/list.o
 .debug_frame   0x0000020c      0x174 ./src/FreeRTOS/src/port.o
 .debug_frame   0x00000380      0x35c ./src/FreeRTOS/src/queue.o
 .debug_frame   0x000006dc      0x4c4 ./src/FreeRTOS/src/tasks.o
 .debug_frame   0x00000ba0       0x64 ./src/LED.o
 .debug_frame   0x00000c04       0xf4 ./src/cr_startup_lpc43xx.o
 .debug_frame   0x00000cf8       0xa8 ./src/main.o
 .debug_frame   0x00000da0      0x19c C:\Users\Bertus\Documents\LPCXpresso_5.2.6_2137\workspace8\CMSISv2p10_LPC43xx_DriverLib\Debug\libCMSISv2p10_LPC43xx_DriverLib.a(lpc43xx_cgu.o)
 .debug_frame   0x00000f3c      0x170 C:\Users\Bertus\Documents\LPCXpresso_5.2.6_2137\workspace8\CMSISv2p10_LPC43xx_DriverLib\Debug\libCMSISv2p10_LPC43xx_DriverLib.a(lpc43xx_gpio.o)
 .debug_frame   0x000010ac       0x2c C:\Users\Bertus\Documents\LPCXpresso_5.2.6_2137\workspace8\CMSISv2p10_LPC43xx_DriverLib\Debug\libCMSISv2p10_LPC43xx_DriverLib.a(lpc43xx_scu.o)
 .debug_frame   0x000010d8       0x50 C:\Users\Bertus\Documents\LPCXpresso_5.2.6_2137\workspace8\CMSISv2p10_LPC43xx_DriverLib\Debug\libCMSISv2p10_LPC43xx_DriverLib.a(lpc43xx_utils.o)
 .debug_frame   0x00001128       0x2c C:\Users\Bertus\Documents\LPCXpresso_5.2.6_2137\workspace8\CMSISv2p10_LPC43xx_DriverLib\Debug\libCMSISv2p10_LPC43xx_DriverLib.a(system_LPC43xx.o)
 .debug_frame   0x00001154      0x248 C:\Users\Bertus\Documents\LPCXpresso_5.2.6_2137\workspace8\CMSISv2p10_LPC43xx_DriverLib\Debug\libCMSISv2p10_LPC43xx_DriverLib.a(lpc43xx_timer.o)
